; ModuleID = '7/110.c'
source_filename = "7/110.c"
target datalayout = "e-m:e-p270:32:32-p271:32:32-p272:64:64-i64:64-f80:128-n8:16:32:64-S128"
target triple = "x86_64-pc-linux-gnu"

@.str = private unnamed_addr constant [7 x i8] c"%s%s%s\00", align 1
@.str.1 = private unnamed_addr constant [3 x i8] c"%s\00", align 1

; Function Attrs: noinline nounwind uwtable
define dso_local i32 @main() #0 {
  %1 = alloca i32, align 4
  %2 = alloca [500 x i8], align 16
  %3 = alloca [500 x i8], align 16
  %4 = alloca [500 x i8], align 16
  %5 = alloca i32, align 4
  %6 = alloca i32, align 4
  %7 = alloca i32, align 4
  %8 = alloca i32, align 4
  %9 = alloca i32, align 4
  %10 = alloca i32, align 4
  %11 = alloca i32, align 4
  store i32 0, i32* %1, align 4
  store i32 0, i32* %11, align 4
  %12 = getelementptr inbounds [500 x i8], [500 x i8]* %2, i64 0, i64 0
  %13 = getelementptr inbounds [500 x i8], [500 x i8]* %3, i64 0, i64 0
  %14 = getelementptr inbounds [500 x i8], [500 x i8]* %4, i64 0, i64 0
  %15 = call i32 (i8*, ...) @__isoc99_scanf(i8* getelementptr inbounds ([7 x i8], [7 x i8]* @.str, i64 0, i64 0), i8* %12, i8* %13, i8* %14)
  %16 = getelementptr inbounds [500 x i8], [500 x i8]* %2, i64 0, i64 0
  %17 = call i64 @strlen(i8* %16) #3
  %18 = trunc i64 %17 to i32
  store i32 %18, i32* %5, align 4
  %19 = getelementptr inbounds [500 x i8], [500 x i8]* %3, i64 0, i64 0
  %20 = call i64 @strlen(i8* %19) #3
  %21 = trunc i64 %20 to i32
  store i32 %21, i32* %6, align 4
  store i32 0, i32* %7, align 4
  br label %22

22:                                               ; preds = %86, %0
  %23 = load i32, i32* %7, align 4
  %24 = load i32, i32* %5, align 4
  %25 = load i32, i32* %6, align 4
  %26 = sub nsw i32 %24, %25
  %27 = add nsw i32 %26, 1
  %28 = icmp slt i32 %23, %27
  br i1 %28, label %29, label %89

29:                                               ; preds = %22
  store i32 0, i32* %9, align 4
  store i32 0, i32* %8, align 4
  br label %30

30:                                               ; preds = %53, %29
  %31 = load i32, i32* %8, align 4
  %32 = load i32, i32* %6, align 4
  %33 = icmp slt i32 %31, %32
  br i1 %33, label %34, label %56

34:                                               ; preds = %30
  %35 = load i32, i32* %7, align 4
  %36 = load i32, i32* %8, align 4
  %37 = add nsw i32 %35, %36
  %38 = sext i32 %37 to i64
  %39 = getelementptr inbounds [500 x i8], [500 x i8]* %2, i64 0, i64 %38
  %40 = load i8, i8* %39, align 1
  %41 = sext i8 %40 to i32
  %42 = load i32, i32* %8, align 4
  %43 = sext i32 %42 to i64
  %44 = getelementptr inbounds [500 x i8], [500 x i8]* %3, i64 0, i64 %43
  %45 = load i8, i8* %44, align 1
  %46 = sext i8 %45 to i32
  %47 = icmp ne i32 %41, %46
  br i1 %47, label %48, label %49

48:                                               ; preds = %34
  br label %56

49:                                               ; preds = %34
  %50 = load i32, i32* %9, align 4
  %51 = add nsw i32 %50, 1
  store i32 %51, i32* %9, align 4
  br label %52

52:                                               ; preds = %49
  br label %53

53:                                               ; preds = %52
  %54 = load i32, i32* %8, align 4
  %55 = add nsw i32 %54, 1
  store i32 %55, i32* %8, align 4
  br label %30

56:                                               ; preds = %48, %30
  %57 = load i32, i32* %9, align 4
  %58 = load i32, i32* %6, align 4
  %59 = icmp eq i32 %57, %58
  br i1 %59, label %60, label %81

60:                                               ; preds = %56
  %61 = load i32, i32* %11, align 4
  %62 = add nsw i32 %61, 1
  store i32 %62, i32* %11, align 4
  store i32 0, i32* %10, align 4
  br label %63

63:                                               ; preds = %77, %60
  %64 = load i32, i32* %10, align 4
  %65 = load i32, i32* %6, align 4
  %66 = icmp slt i32 %64, %65
  br i1 %66, label %67, label %80

67:                                               ; preds = %63
  %68 = load i32, i32* %10, align 4
  %69 = sext i32 %68 to i64
  %70 = getelementptr inbounds [500 x i8], [500 x i8]* %4, i64 0, i64 %69
  %71 = load i8, i8* %70, align 1
  %72 = load i32, i32* %7, align 4
  %73 = load i32, i32* %10, align 4
  %74 = add nsw i32 %72, %73
  %75 = sext i32 %74 to i64
  %76 = getelementptr inbounds [500 x i8], [500 x i8]* %2, i64 0, i64 %75
  store i8 %71, i8* %76, align 1
  br label %77

77:                                               ; preds = %67
  %78 = load i32, i32* %10, align 4
  %79 = add nsw i32 %78, 1
  store i32 %79, i32* %10, align 4
  br label %63

80:                                               ; preds = %63
  br label %81

81:                                               ; preds = %80, %56
  %82 = load i32, i32* %11, align 4
  %83 = icmp eq i32 %82, 1
  br i1 %83, label %84, label %85

84:                                               ; preds = %81
  br label %89

85:                                               ; preds = %81
  br label %86

86:                                               ; preds = %85
  %87 = load i32, i32* %7, align 4
  %88 = add nsw i32 %87, 1
  store i32 %88, i32* %7, align 4
  br label %22

89:                                               ; preds = %84, %22
  %90 = getelementptr inbounds [500 x i8], [500 x i8]* %2, i64 0, i64 0
  %91 = call i32 (i8*, ...) @printf(i8* getelementptr inbounds ([3 x i8], [3 x i8]* @.str.1, i64 0, i64 0), i8* %90)
  ret i32 0
}

declare dso_local i32 @__isoc99_scanf(i8*, ...) #1

; Function Attrs: nounwind readonly
declare dso_local i64 @strlen(i8*) #2

declare dso_local i32 @printf(i8*, ...) #1


!llvm.module.flags = !{!0}
!llvm.ident = !{!1}

!0 = !{i32 1, !"wchar_size", i32 4}
!1 = !{!"clang version 10.0.0-4ubuntu1 "}
